target datalayout = "e-m:e-p270:32:32-p271:32:32-p272:64:64-i64:64-i128:128-f80:128-n8:16:32:64-S128"
target triple = "x86_64-pc-linux-gnu"

%struct.mi_page_queue_s = type { ptr, ptr, i64 }
%struct.mi_stats_s = type { %struct.mi_stat_count_s, %struct.mi_stat_count_s, %struct.mi_stat_count_s, %struct.mi_stat_count_s, %struct.mi_stat_count_s, %struct.mi_stat_count_s, %struct.mi_stat_count_s, %struct.mi_stat_count_s, %struct.mi_stat_count_s, %struct.mi_stat_count_s, %struct.mi_stat_count_s, %struct.mi_stat_count_s, %struct.mi_stat_count_s, %struct.mi_stat_count_s, %struct.mi_stat_count_s, %struct.mi_stat_counter_s, %struct.mi_stat_counter_s, %struct.mi_stat_counter_s, %struct.mi_stat_counter_s, %struct.mi_stat_counter_s, %struct.mi_stat_counter_s, %struct.mi_stat_counter_s, %struct.mi_stat_counter_s, %struct.mi_stat_counter_s, %struct.mi_stat_counter_s, %struct.mi_stat_counter_s, %struct.mi_stat_counter_s, %struct.mi_stat_counter_s }
%struct.mi_stat_count_s = type { i64, i64, i64, i64 }
%struct.mi_stat_counter_s = type { i64, i64 }
%struct.mi_subproc_s = type { i64, i64, %union.pthread_mutex_t, %union.pthread_mutex_t, ptr, ptr, %struct.mi_memid_s }
%union.pthread_mutex_t = type { %struct.__pthread_mutex_s }
%struct.__pthread_mutex_s = type { i32, i32, i32, i32, i32, i16, i16, %struct.__pthread_internal_list }
%struct.__pthread_internal_list = type { ptr, ptr }
%struct.mi_memid_s = type { %union.anon, i8, i8, i8, i32 }
%union.anon = type { %struct.mi_memid_os_info }
%struct.mi_memid_os_info = type { ptr, i64 }
%struct.mi_segments_tld_s = type { %struct.mi_segment_queue_s, %struct.mi_segment_queue_s, %struct.mi_page_queue_s, i64, i64, i64, i64, i64, ptr, ptr }
%struct.mi_segment_queue_s = type { ptr, ptr }
%struct.mi_heap_s = type { ptr, ptr, i64, i32, i64, [2 x i64], %struct.mi_random_cxt_s, i64, i64, i64, ptr, i8, i8, [129 x ptr], [75 x %struct.mi_page_queue_s] }
%struct.mi_random_cxt_s = type { [16 x i32], [16 x i32], i32, i8 }
%struct.mi_tld_s = type { i64, i8, ptr, ptr, %struct.mi_segments_tld_s, %struct.mi_stats_s }
%struct.mi_thread_data_s = type { %struct.mi_heap_s, %struct.mi_tld_s, %struct.mi_memid_s }

@_mi_heap_default = hidden thread_local(initialexec) global ptr @_mi_heap_empty, align 8
@_mi_stats_main = hidden global %struct.mi_stats_s zeroinitializer, align 64
@mi_subproc_default = internal global %struct.mi_subproc_s zeroinitializer, align 64
@td_cache = internal global [32 x ptr] zeroinitializer, align 16
@thread_count = internal global i64 1, align 8
@.str.8 = private unnamed_addr constant [59 x i8] c"unable to allocate thread local heap metadata (%zu bytes)\0A\00", align 1

; Function Attrs: inlinehint nounwind uwtable
define internal void @_mi_memzero(ptr noundef %0, i64 noundef %1) #1 {
  %3 = alloca ptr, align 8
  %4 = alloca i64, align 8
  store ptr %0, ptr %3, align 8, !tbaa !27
  store i64 %1, ptr %4, align 8, !tbaa !8
  %5 = load ptr, ptr %3, align 8, !tbaa !27
  %6 = load i64, ptr %4, align 8, !tbaa !8
  call void @llvm.memset.p0.i64(ptr align 1 %5, i8 0, i64 %6, i1 false)
  ret void
}

; Function Attrs: inlinehint nounwind uwtable
define internal i64 @_mi_prim_thread_id() #1 {
  %1 = call ptr @llvm.thread.pointer()
  %2 = ptrtoint ptr %1 to i64
  ret i64 %2
}

; Function Attrs: inlinehint nounwind uwtable
define internal void @_mi_memzero_aligned(ptr noundef %0, i64 noundef %1) #1 {
  %3 = alloca ptr, align 8
  %4 = alloca i64, align 8
  %5 = alloca ptr, align 8
  store ptr %0, ptr %3, align 8, !tbaa !27
  store i64 %1, ptr %4, align 8, !tbaa !8
  call void @llvm.lifetime.start.p0(i64 8, ptr %5) #12
  %6 = load ptr, ptr %3, align 8, !tbaa !27
  call void @llvm.assume(i1 true) [ "align"(ptr %6, i64 8) ]
  store ptr %6, ptr %5, align 8, !tbaa !27
  %7 = load ptr, ptr %5, align 8, !tbaa !27
  %8 = load i64, ptr %4, align 8, !tbaa !8
  call void @_mi_memzero(ptr noundef %7, i64 noundef %8) #11
  call void @llvm.lifetime.end.p0(i64 8, ptr %5) #12
  ret void
}

; Function Attrs: nounwind uwtable
define hidden void @_mi_heap_guarded_init(ptr noundef %0) #0 {
  %2 = alloca ptr, align 8
  store ptr %0, ptr %2, align 8, !tbaa !3
  ret void
}

; Function Attrs: inlinehint nounwind uwtable
define internal void @mi_lock_init(ptr noundef %0) #1 {
  %2 = alloca ptr, align 8
  store ptr %0, ptr %2, align 8, !tbaa !27
  %3 = load ptr, ptr %2, align 8, !tbaa !27
  %4 = call i32 @pthread_mutex_init(ptr noundef %3, ptr noundef null) #13
  ret void
}

; Function Attrs: nounwind uwtable
define hidden i64 @_mi_thread_id() #0 {
  %1 = call i64 @_mi_prim_thread_id() #11
  ret i64 %1
}

; Function Attrs: nounwind uwtable
define hidden void @_mi_tld_init(ptr noundef %0, ptr noundef %1) #0 {
  %3 = alloca ptr, align 8
  %4 = alloca ptr, align 8
  store ptr %0, ptr %3, align 8, !tbaa !47
  store ptr %1, ptr %4, align 8, !tbaa !3
  %5 = load ptr, ptr %3, align 8, !tbaa !47
  call void @_mi_memzero_aligned(ptr noundef %5, i64 noundef 832) #11
  %6 = load ptr, ptr %4, align 8, !tbaa !3
  %7 = load ptr, ptr %3, align 8, !tbaa !47
  %8 = getelementptr inbounds nuw %struct.mi_tld_s, ptr %7, i32 0, i32 2
  store ptr %6, ptr %8, align 8, !tbaa !48
  %9 = load ptr, ptr %3, align 8, !tbaa !47
  %10 = getelementptr inbounds nuw %struct.mi_tld_s, ptr %9, i32 0, i32 3
  store ptr null, ptr %10, align 8, !tbaa !49
  %11 = load ptr, ptr %3, align 8, !tbaa !47
  %12 = getelementptr inbounds nuw %struct.mi_tld_s, ptr %11, i32 0, i32 4
  %13 = getelementptr inbounds nuw %struct.mi_segments_tld_s, ptr %12, i32 0, i32 8
  store ptr @mi_subproc_default, ptr %13, align 8, !tbaa !33
  %14 = load ptr, ptr %3, align 8, !tbaa !47
  %15 = getelementptr inbounds nuw %struct.mi_tld_s, ptr %14, i32 0, i32 5
  %16 = load ptr, ptr %3, align 8, !tbaa !47
  %17 = getelementptr inbounds nuw %struct.mi_tld_s, ptr %16, i32 0, i32 4
  %18 = getelementptr inbounds nuw %struct.mi_segments_tld_s, ptr %17, i32 0, i32 9
  store ptr %15, ptr %18, align 8, !tbaa !50
  ret void
}

; Function Attrs: nounwind uwtable
define internal ptr @mi_thread_data_zalloc() #0 {
  %1 = alloca i8, align 1
  %2 = alloca ptr, align 8
  %3 = alloca i32, align 4
  %4 = alloca i32, align 4
  %5 = alloca ptr, align 8
  %6 = alloca ptr, align 8
  %7 = alloca ptr, align 8
  %8 = alloca %struct.mi_memid_s, align 8
  call void @llvm.lifetime.start.p0(i64 1, ptr %1) #12
  store i8 0, ptr %1, align 1, !tbaa !21
  call void @llvm.lifetime.start.p0(i64 8, ptr %2) #12
  store ptr null, ptr %2, align 8, !tbaa !44
  call void @llvm.lifetime.start.p0(i64 4, ptr %3) #12
  store i32 0, ptr %3, align 4, !tbaa !22
  br label %9

9:                                                ; preds = %33, %0
  %10 = load i32, ptr %3, align 4, !tbaa !22
  %11 = icmp slt i32 %10, 32
  br i1 %11, label %13, label %12

12:                                               ; preds = %9
  store i32 2, ptr %4, align 4
  br label %36

13:                                               ; preds = %9
  %14 = load i32, ptr %3, align 4, !tbaa !22
  %15 = sext i32 %14 to i64
  %16 = getelementptr inbounds [32 x ptr], ptr @td_cache, i64 0, i64 %15
  %17 = load atomic i64, ptr %16 monotonic, align 8
  store i64 %17, ptr %5, align 8
  %18 = load ptr, ptr %5, align 8, !tbaa !44
  store ptr %18, ptr %2, align 8, !tbaa !44
  %19 = load ptr, ptr %2, align 8, !tbaa !44
  %20 = icmp ne ptr %19, null
  br i1 %20, label %21, label %32

21:                                               ; preds = %13
  %22 = load i32, ptr %3, align 4, !tbaa !22
  %23 = sext i32 %22 to i64
  %24 = getelementptr inbounds [32 x ptr], ptr @td_cache, i64 0, i64 %23
  store ptr null, ptr %6, align 8, !tbaa !44
  %25 = load i64, ptr %6, align 8
  %26 = atomicrmw xchg ptr %24, i64 %25 acq_rel, align 8
  store i64 %26, ptr %7, align 8
  %27 = load ptr, ptr %7, align 8, !tbaa !44
  store ptr %27, ptr %2, align 8, !tbaa !44
  %28 = load ptr, ptr %2, align 8, !tbaa !44
  %29 = icmp ne ptr %28, null
  br i1 %29, label %30, label %31

30:                                               ; preds = %21
  store i32 2, ptr %4, align 4
  br label %36

31:                                               ; preds = %21
  br label %32

32:                                               ; preds = %31, %13
  br label %33

33:                                               ; preds = %32
  %34 = load i32, ptr %3, align 4, !tbaa !22
  %35 = add nsw i32 %34, 1
  store i32 %35, ptr %3, align 4, !tbaa !22
  br label %9, !llvm.loop !56

36:                                               ; preds = %30, %12
  call void @llvm.lifetime.end.p0(i64 4, ptr %3) #12
  br label %37

37:                                               ; preds = %36
  %38 = load ptr, ptr %2, align 8, !tbaa !44
  %39 = icmp eq ptr %38, null
  br i1 %39, label %40, label %61

40:                                               ; preds = %37
  call void @llvm.lifetime.start.p0(i64 24, ptr %8) #12
  %41 = call ptr @_mi_os_alloc(i64 noundef 3920, ptr noundef %8) #11
  store ptr %41, ptr %2, align 8, !tbaa !44
  %42 = load ptr, ptr %2, align 8, !tbaa !44
  %43 = icmp eq ptr %42, null
  br i1 %43, label %44, label %50

44:                                               ; preds = %40
  %45 = call ptr @_mi_os_alloc(i64 noundef 3920, ptr noundef %8) #11
  store ptr %45, ptr %2, align 8, !tbaa !44
  %46 = load ptr, ptr %2, align 8, !tbaa !44
  %47 = icmp eq ptr %46, null
  br i1 %47, label %48, label %49

48:                                               ; preds = %44
  call void (i32, ptr, ...) @_mi_error_message(i32 noundef 12, ptr noundef @.str.8, i64 noundef 3920) #11
  br label %49

49:                                               ; preds = %48, %44
  br label %50

50:                                               ; preds = %49, %40
  %51 = load ptr, ptr %2, align 8, !tbaa !44
  %52 = icmp ne ptr %51, null
  br i1 %52, label %53, label %60

53:                                               ; preds = %50
  %54 = load ptr, ptr %2, align 8, !tbaa !44
  %55 = getelementptr inbounds nuw %struct.mi_thread_data_s, ptr %54, i32 0, i32 2
  call void @llvm.memcpy.p0.p0.i64(ptr align 8 %55, ptr align 8 %8, i64 24, i1 false), !tbaa.struct !19
  %56 = getelementptr inbounds nuw %struct.mi_memid_s, ptr %8, i32 0, i32 3
  %57 = load i8, ptr %56, align 2, !tbaa !57, !range !28, !noundef !29
  %58 = trunc i8 %57 to i1
  %59 = zext i1 %58 to i8
  store i8 %59, ptr %1, align 1, !tbaa !21
  br label %60

60:                                               ; preds = %53, %50
  call void @llvm.lifetime.end.p0(i64 24, ptr %8) #12
  br label %61

61:                                               ; preds = %60, %37
  %62 = load ptr, ptr %2, align 8, !tbaa !44
  %63 = icmp ne ptr %62, null
  br i1 %63, label %64, label %69

64:                                               ; preds = %61
  %65 = load i8, ptr %1, align 1, !tbaa !21, !range !28, !noundef !29
  %66 = trunc i8 %65 to i1
  br i1 %66, label %69, label %67

67:                                               ; preds = %64
  %68 = load ptr, ptr %2, align 8, !tbaa !44
  call void @_mi_memzero_aligned(ptr noundef %68, i64 noundef 3896) #11
  br label %69

69:                                               ; preds = %67, %64, %61
  %70 = load ptr, ptr %2, align 8, !tbaa !44
  store i32 1, ptr %4, align 4
  call void @llvm.lifetime.end.p0(i64 8, ptr %2) #12
  call void @llvm.lifetime.end.p0(i64 1, ptr %1) #12
  ret ptr %70
}

; Function Attrs: nounwind uwtable
define hidden void @_mi_heap_set_default_direct(ptr noundef %0) #0 {
  %2 = alloca ptr, align 8
  store ptr %0, ptr %2, align 8, !tbaa !3
  %3 = load ptr, ptr %2, align 8, !tbaa !3
  %4 = call align 8 ptr @llvm.threadlocal.address.p0(ptr align 8 @_mi_heap_default)
  store ptr %3, ptr %4, align 8, !tbaa !3
  %5 = load ptr, ptr %2, align 8, !tbaa !3
  call void @_mi_prim_thread_associate_default_heap(ptr noundef %5) #11
  ret void
}

; Function Attrs: nounwind uwtable
define internal void @mi_heap_main_init() #0 {
  %1 = load i64, ptr getelementptr inbounds nuw (%struct.mi_heap_s, ptr @_mi_heap_main, i32 0, i32 4), align 32, !tbaa !10
  %2 = icmp eq i64 %1, 0
  br i1 %2, label %3, label %8

3:                                                ; preds = %0
  %4 = call i64 @_mi_thread_id() #11
  store i64 %4, ptr getelementptr inbounds nuw (%struct.mi_heap_s, ptr @_mi_heap_main, i32 0, i32 2), align 16, !tbaa !16
  store i64 1, ptr getelementptr inbounds nuw (%struct.mi_heap_s, ptr @_mi_heap_main, i32 0, i32 4), align 32, !tbaa !10
  call void @_mi_random_init(ptr noundef getelementptr inbounds nuw (%struct.mi_heap_s, ptr @_mi_heap_main, i32 0, i32 6)) #11
  %5 = call i64 @_mi_heap_random_next(ptr noundef @_mi_heap_main) #11
  store i64 %5, ptr getelementptr inbounds nuw (%struct.mi_heap_s, ptr @_mi_heap_main, i32 0, i32 4), align 32, !tbaa !10
  %6 = call i64 @_mi_heap_random_next(ptr noundef @_mi_heap_main) #11
  store i64 %6, ptr getelementptr inbounds nuw (%struct.mi_heap_s, ptr @_mi_heap_main, i32 0, i32 5), align 8, !tbaa !8
  %7 = call i64 @_mi_heap_random_next(ptr noundef @_mi_heap_main) #11
  store i64 %7, ptr getelementptr inbounds ([2 x i64], ptr getelementptr inbounds nuw (%struct.mi_heap_s, ptr @_mi_heap_main, i32 0, i32 5), i64 0, i64 1), align 8, !tbaa !8
  call void @mi_lock_init(ptr noundef getelementptr inbounds nuw (%struct.mi_subproc_s, ptr @mi_subproc_default, i32 0, i32 2)) #11
  call void @mi_lock_init(ptr noundef getelementptr inbounds nuw (%struct.mi_subproc_s, ptr @mi_subproc_default, i32 0, i32 3)) #11
  call void @_mi_heap_guarded_init(ptr noundef @_mi_heap_main) #11
  br label %8

8:                                                ; preds = %3, %0
  ret void
}

; Function Attrs: nounwind uwtable
define hidden zeroext i1 @_mi_is_main_thread() #0 {
  %1 = load i64, ptr getelementptr inbounds nuw (%struct.mi_heap_s, ptr @_mi_heap_main, i32 0, i32 2), align 16, !tbaa !16
  %2 = icmp eq i64 %1, 0
  br i1 %2, label %7, label %3

3:                                                ; preds = %0
  %4 = load i64, ptr getelementptr inbounds nuw (%struct.mi_heap_s, ptr @_mi_heap_main, i32 0, i32 2), align 16, !tbaa !16
  %5 = call i64 @_mi_thread_id() #11
  %6 = icmp eq i64 %4, %5
  br label %7

7:                                                ; preds = %3, %0
  %8 = phi i1 [ true, %0 ], [ %6, %3 ]
  ret i1 %8
}

; Function Attrs: inlinehint nounwind uwtable
define internal zeroext i1 @mi_heap_is_initialized(ptr noundef %0) #1 {
  %2 = alloca ptr, align 8
  store ptr %0, ptr %2, align 8, !tbaa !3
  %3 = load ptr, ptr %2, align 8, !tbaa !3
  %4 = icmp ne ptr %3, null
  br i1 %4, label %5, label %8

5:                                                ; preds = %1
  %6 = load ptr, ptr %2, align 8, !tbaa !3
  %7 = icmp ne ptr %6, @_mi_heap_empty
  br label %8

8:                                                ; preds = %5, %1
  %9 = phi i1 [ false, %1 ], [ %7, %5 ]
  ret i1 %9
}

; Function Attrs: inlinehint nounwind uwtable
define internal ptr @mi_prim_get_default_heap() #1 {
  %1 = call align 8 ptr @llvm.threadlocal.address.p0(ptr align 8 @_mi_heap_default)
  %2 = load ptr, ptr %1, align 8, !tbaa !3
  ret ptr %2
}

; Function Attrs: nounwind uwtable
define internal zeroext i1 @_mi_thread_heap_init() #0 {
  %1 = alloca i1, align 1
  %2 = alloca ptr, align 8
  %3 = alloca i32, align 4
  %4 = alloca ptr, align 8
  %5 = alloca ptr, align 8
  %6 = call ptr @mi_prim_get_default_heap() #11
  %7 = call zeroext i1 @mi_heap_is_initialized(ptr noundef %6) #11
  br i1 %7, label %8, label %9

8:                                                ; preds = %0
  store i1 true, ptr %1, align 1
  br label %32

9:                                                ; preds = %0
  %10 = call zeroext i1 @_mi_is_main_thread() #11
  br i1 %10, label %11, label %12

11:                                               ; preds = %9
  call void @mi_heap_main_init() #11
  call void @_mi_heap_set_default_direct(ptr noundef @_mi_heap_main) #11
  br label %31

12:                                               ; preds = %9
  call void @llvm.lifetime.start.p0(i64 8, ptr %2) #12
  %13 = call ptr @mi_thread_data_zalloc() #11
  store ptr %13, ptr %2, align 8, !tbaa !44
  %14 = load ptr, ptr %2, align 8, !tbaa !44
  %15 = icmp eq ptr %14, null
  br i1 %15, label %16, label %17

16:                                               ; preds = %12
  store i1 false, ptr %1, align 1
  store i32 1, ptr %3, align 4
  br label %28

17:                                               ; preds = %12
  call void @llvm.lifetime.start.p0(i64 8, ptr %4) #12
  %18 = load ptr, ptr %2, align 8, !tbaa !44
  %19 = getelementptr inbounds nuw %struct.mi_thread_data_s, ptr %18, i32 0, i32 1
  store ptr %19, ptr %4, align 8, !tbaa !47
  call void @llvm.lifetime.start.p0(i64 8, ptr %5) #12
  %20 = load ptr, ptr %2, align 8, !tbaa !44
  %21 = getelementptr inbounds nuw %struct.mi_thread_data_s, ptr %20, i32 0, i32 0
  store ptr %21, ptr %5, align 8, !tbaa !3
  %22 = load ptr, ptr %4, align 8, !tbaa !47
  %23 = load ptr, ptr %5, align 8, !tbaa !3
  call void @_mi_tld_init(ptr noundef %22, ptr noundef %23) #11
  %24 = load ptr, ptr %5, align 8, !tbaa !3
  %25 = load ptr, ptr %4, align 8, !tbaa !47
  %26 = call i32 @_mi_arena_id_none() #11
  call void @_mi_heap_init(ptr noundef %24, ptr noundef %25, i32 noundef %26, i1 noundef zeroext false, i8 noundef zeroext 0) #11
  %27 = load ptr, ptr %5, align 8, !tbaa !3
  call void @_mi_heap_set_default_direct(ptr noundef %27) #11
  call void @llvm.lifetime.end.p0(i64 8, ptr %5) #12
  call void @llvm.lifetime.end.p0(i64 8, ptr %4) #12
  store i32 0, ptr %3, align 4
  br label %28

28:                                               ; preds = %17, %16
  call void @llvm.lifetime.end.p0(i64 8, ptr %2) #12
  %29 = load i32, ptr %3, align 4
  switch i32 %29, label %34 [
    i32 0, label %30
    i32 1, label %32
  ]

30:                                               ; preds = %28
  br label %31

31:                                               ; preds = %30, %11
  store i1 false, ptr %1, align 1
  br label %32

32:                                               ; preds = %31, %28, %8
  %33 = load i1, ptr %1, align 1
  ret i1 %33

34:                                               ; preds = %28
  unreachable
}

; Function Attrs: nounwind uwtable
define hidden void @mi_thread_init() #0 {
  %1 = alloca i64, align 8
  %2 = alloca i64, align 8
  call void @mi_process_init() #11
  %3 = call zeroext i1 @_mi_thread_heap_init() #11
  br i1 %3, label %4, label %5

4:                                                ; preds = %0
  br label %8

5:                                                ; preds = %0
  call void @_mi_stat_increase(ptr noundef getelementptr inbounds nuw (%struct.mi_stats_s, ptr @_mi_stats_main, i32 0, i32 9), i64 noundef 1) #11
  store i64 1, ptr %1, align 8, !tbaa !8
  %6 = load i64, ptr %1, align 8
  %7 = atomicrmw add ptr @thread_count, i64 %6 monotonic, align 8
  store i64 %7, ptr %2, align 8
  br label %8

8:                                                ; preds = %5, %4
  ret void
}