; Function Attrs: nounwind uwtable
define hidden void @mi_thread_init() local_unnamed_addr #1 {
  %1 = alloca %struct.mi_memid_s, align 8
  tail call void @mi_process_init() #16
  %2 = tail call align 8 ptr @llvm.threadlocal.address.p0(ptr align 8 @_mi_heap_default)
  %3 = load ptr, ptr %2, align 8, !tbaa !46
  %4 = icmp ne ptr %3, null
  %5 = icmp ne ptr %3, @_mi_heap_empty
  %6 = and i1 %4, %5
  br i1 %6, label %_mi_thread_heap_init.exit.thread, label %7

7:                                                ; preds = %0
  %8 = load i64, ptr getelementptr inbounds nuw (i8, ptr @_mi_heap_main, i64 16), align 16, !tbaa !14
  %9 = icmp eq i64 %8, 0
  br i1 %9, label %_mi_is_main_thread.exit.thread.i, label %_mi_is_main_thread.exit.i

_mi_is_main_thread.exit.i:                        ; preds = %7
  %10 = tail call ptr @llvm.thread.pointer()
  %11 = ptrtoint ptr %10 to i64
  %12 = icmp eq i64 %8, %11
  br i1 %12, label %_mi_is_main_thread.exit.thread.i, label %.preheader.i

_mi_is_main_thread.exit.thread.i:                 ; preds = %_mi_is_main_thread.exit.i, %7
  %13 = load i64, ptr getelementptr inbounds nuw (i8, ptr @_mi_heap_main, i64 32), align 32, !tbaa !3
  %14 = icmp eq i64 %13, 0
  br i1 %14, label %15, label %_mi_thread_heap_init.exit.thread1

15:                                               ; preds = %_mi_is_main_thread.exit.thread.i
  %16 = tail call ptr @llvm.thread.pointer()
  %17 = ptrtoint ptr %16 to i64
  store i64 %17, ptr getelementptr inbounds nuw (i8, ptr @_mi_heap_main, i64 16), align 16, !tbaa !14
  store i64 1, ptr getelementptr inbounds nuw (i8, ptr @_mi_heap_main, i64 32), align 32, !tbaa !3
  tail call void @_mi_random_init(ptr noundef nonnull getelementptr inbounds nuw (i8, ptr @_mi_heap_main, i64 56)) #14
  %18 = tail call i64 @_mi_heap_random_next(ptr noundef nonnull @_mi_heap_main) #14
  store i64 %18, ptr getelementptr inbounds nuw (i8, ptr @_mi_heap_main, i64 32), align 32, !tbaa !3
  %19 = tail call i64 @_mi_heap_random_next(ptr noundef nonnull @_mi_heap_main) #14
  store i64 %19, ptr getelementptr inbounds nuw (i8, ptr @_mi_heap_main, i64 40), align 8, !tbaa !15
  %20 = tail call i64 @_mi_heap_random_next(ptr noundef nonnull @_mi_heap_main) #14
  store i64 %20, ptr getelementptr inbounds nuw (i8, ptr @_mi_heap_main, i64 48), align 16, !tbaa !15
  %21 = tail call i32 @pthread_mutex_init(ptr noundef nonnull getelementptr inbounds nuw (i8, ptr @mi_subproc_default, i64 16), ptr noundef null) #14
  %22 = tail call i32 @pthread_mutex_init(ptr noundef nonnull getelementptr inbounds nuw (i8, ptr @mi_subproc_default, i64 56), ptr noundef null) #14
  br label %_mi_thread_heap_init.exit.thread1

_mi_thread_heap_init.exit.thread1:                ; preds = %_mi_is_main_thread.exit.thread.i, %15
  store ptr @_mi_heap_main, ptr %2, align 8, !tbaa !46
  tail call void @_mi_prim_thread_associate_default_heap(ptr noundef nonnull @_mi_heap_main) #14
  br label %_mi_thread_heap_init.exit

.preheader.i:                                     ; preds = %_mi_is_main_thread.exit.i, %27
  %indvars.iv.i.i = phi i64 [ %indvars.iv.next.i.i, %27 ], [ 0, %_mi_is_main_thread.exit.i ]
  %23 = getelementptr inbounds nuw [32 x ptr], ptr @td_cache, i64 0, i64 %indvars.iv.i.i
  %24 = load atomic i64, ptr %23 monotonic, align 8
  %.not.i.i = icmp eq i64 %24, 0
  br i1 %.not.i.i, label %27, label %25

25:                                               ; preds = %.preheader.i
  %26 = atomicrmw xchg ptr %23, i64 0 acq_rel, align 8
  %.not26.i.i = icmp eq i64 %26, 0
  br i1 %.not26.i.i, label %27, label %28

27:                                               ; preds = %25, %.preheader.i
  %indvars.iv.next.i.i = add nuw nsw i64 %indvars.iv.i.i, 1
  %exitcond.not.i.i = icmp eq i64 %indvars.iv.next.i.i, 32
  br i1 %exitcond.not.i.i, label %.thread.i.i, label %.preheader.i, !llvm.loop !47

28:                                               ; preds = %25
  %29 = inttoptr i64 %26 to ptr
  br label %42

.thread.i.i:                                      ; preds = %27
  call void @llvm.lifetime.start.p0(i64 24, ptr nonnull %1) #15
  %30 = call ptr @_mi_os_alloc(i64 noundef 3920, ptr noundef nonnull %1) #14
  %31 = icmp eq ptr %30, null
  br i1 %31, label %32, label %36

32:                                               ; preds = %.thread.i.i
  %33 = call ptr @_mi_os_alloc(i64 noundef 3920, ptr noundef nonnull %1) #14
  %34 = icmp eq ptr %33, null
  br i1 %34, label %35, label %36

35:                                               ; preds = %32
  call void (i32, ptr, ...) @_mi_error_message(i32 noundef 12, ptr noundef nonnull @.str.8, i64 noundef 3920) #14
  br label %41

36:                                               ; preds = %32, %.thread.i.i
  %.4.ph.i.i = phi ptr [ %30, %.thread.i.i ], [ %33, %32 ]
  %37 = getelementptr inbounds nuw i8, ptr %.4.ph.i.i, i64 3896
  call void @llvm.memcpy.p0.p0.i64(ptr noundef nonnull align 8 dereferenceable(24) %37, ptr noundef nonnull align 8 dereferenceable(24) %1, i64 24, i1 false), !tbaa.struct !21
  %38 = getelementptr inbounds nuw i8, ptr %1, i64 18
  %39 = load i8, ptr %38, align 2, !tbaa !48, !range !49, !noundef !50
  %40 = trunc nuw i8 %39 to i1
  br label %41

41:                                               ; preds = %36, %35
  %.434.i.i = phi ptr [ %.4.ph.i.i, %36 ], [ null, %35 ]
  %.1.i.i = phi i1 [ %40, %36 ], [ false, %35 ]
  call void @llvm.lifetime.end.p0(i64 24, ptr nonnull %1) #15
  br label %42

42:                                               ; preds = %41, %28
  %.3.i.i = phi ptr [ %.434.i.i, %41 ], [ %29, %28 ]
  %.0.i.i = phi i1 [ %.1.i.i, %41 ], [ false, %28 ]
  %.not28.i.i = icmp eq ptr %.3.i.i, null
  %brmerge.i.i = select i1 %.not28.i.i, i1 true, i1 %.0.i.i
  br i1 %brmerge.i.i, label %mi_thread_data_zalloc.exit.i, label %mi_thread_data_zalloc.exit.thread.i

mi_thread_data_zalloc.exit.thread.i:              ; preds = %42
  call void @llvm.assume(i1 true) [ "align"(ptr %.3.i.i, i64 8) ]
  call void @llvm.memset.p0.i64(ptr noundef nonnull align 8 dereferenceable(3896) %.3.i.i, i8 0, i64 range(i64 832, 3897) 3064, i1 false)
  br label %43

mi_thread_data_zalloc.exit.i:                     ; preds = %42
  br i1 %.not28.i.i, label %_mi_thread_heap_init.exit, label %43

43:                                               ; preds = %mi_thread_data_zalloc.exit.i, %mi_thread_data_zalloc.exit.thread.i
  %44 = getelementptr inbounds nuw i8, ptr %.3.i.i, i64 3064
  call void @llvm.assume(i1 true) [ "align"(ptr %44, i64 8) ]
  call void @llvm.memset.p0.i64(ptr noundef nonnull align 8 dereferenceable(832) %44, i8 0, i64 range(i64 832, 3897) 832, i1 false)
  %45 = getelementptr inbounds nuw i8, ptr %.3.i.i, i64 3080
  store ptr %.3.i.i, ptr %45, align 8, !tbaa !44
  %46 = getelementptr inbounds nuw i8, ptr %.3.i.i, i64 3192
  store ptr @mi_subproc_default, ptr %46, align 8, !tbaa !30
  %47 = getelementptr inbounds nuw i8, ptr %.3.i.i, i64 3208
  %48 = getelementptr inbounds nuw i8, ptr %.3.i.i, i64 3200
  store ptr %47, ptr %48, align 8, !tbaa !45
  %49 = call i32 @_mi_arena_id_none() #14
  call void @_mi_heap_init(ptr noundef nonnull %.3.i.i, ptr noundef nonnull %44, i32 noundef %49, i1 noundef zeroext false, i8 noundef zeroext 0) #14
  store ptr %.3.i.i, ptr %2, align 8, !tbaa !46
  call void @_mi_prim_thread_associate_default_heap(ptr noundef nonnull %.3.i.i) #14
  br label %_mi_thread_heap_init.exit

_mi_thread_heap_init.exit:                        ; preds = %43, %mi_thread_data_zalloc.exit.i, %_mi_thread_heap_init.exit.thread1
  call void @_mi_stat_increase(ptr noundef nonnull getelementptr inbounds nuw (i8, ptr @_mi_stats_main, i64 288), i64 noundef 1) #14
  %50 = atomicrmw add ptr @thread_count, i64 1 monotonic, align 8
  br label %_mi_thread_heap_init.exit.thread

_mi_thread_heap_init.exit.thread:                 ; preds = %0, %_mi_thread_heap_init.exit
  ret void
}